target datalayout = "e-m:e-p270:32:32-p271:32:32-p272:64:64-i64:64-i128:128-f80:128-n8:16:32:64-S128"
target triple = "x86_64-pc-linux-gnu"

@.str = private unnamed_addr constant [23 x i8] c"0123456789abcdefABCDEF\00", align 1

; Function Attrs: nounwind uwtable
define dso_local i64 @pg_lsn_in_internal(ptr noundef %0, ptr noundef %1) #0 {
  %3 = alloca i64, align 8
  %4 = alloca ptr, align 8
  %5 = alloca ptr, align 8
  %6 = alloca i32, align 4
  %7 = alloca i32, align 4
  %8 = alloca i32, align 4
  %9 = alloca i32, align 4
  %10 = alloca i64, align 8
  %11 = alloca i32, align 4
  store ptr %0, ptr %4, align 8
  store ptr %1, ptr %5, align 8
  call void @llvm.lifetime.start.p0(i64 4, ptr %6) #9
  call void @llvm.lifetime.start.p0(i64 4, ptr %7) #9
  call void @llvm.lifetime.start.p0(i64 4, ptr %8) #9
  call void @llvm.lifetime.start.p0(i64 4, ptr %9) #9
  call void @llvm.lifetime.start.p0(i64 8, ptr %10) #9
  %12 = load ptr, ptr %5, align 8
  store i8 0, ptr %12, align 1
  %13 = load ptr, ptr %4, align 8
  %14 = call i64 @strspn(ptr noundef %13, ptr noundef @.str) #10
  %15 = trunc i64 %14 to i32
  store i32 %15, ptr %6, align 4
  %16 = load i32, ptr %6, align 4
  %17 = icmp slt i32 %16, 1
  br i1 %17, label %29, label %18

18:                                               ; preds = %2
  %19 = load i32, ptr %6, align 4
  %20 = icmp sgt i32 %19, 8
  br i1 %20, label %29, label %21

21:                                               ; preds = %18
  %22 = load ptr, ptr %4, align 8
  %23 = load i32, ptr %6, align 4
  %24 = sext i32 %23 to i64
  %25 = getelementptr inbounds i8, ptr %22, i64 %24
  %26 = load i8, ptr %25, align 1
  %27 = sext i8 %26 to i32
  %28 = icmp ne i32 %27, 47
  br i1 %28, label %29, label %31

29:                                               ; preds = %21, %18, %2
  %30 = load ptr, ptr %5, align 8
  store i8 1, ptr %30, align 1
  store i64 0, ptr %3, align 8
  store i32 1, ptr %11, align 4
  br label %75

31:                                               ; preds = %21
  %32 = load ptr, ptr %4, align 8
  %33 = load i32, ptr %6, align 4
  %34 = sext i32 %33 to i64
  %35 = getelementptr inbounds i8, ptr %32, i64 %34
  %36 = getelementptr inbounds i8, ptr %35, i64 1
  %37 = call i64 @strspn(ptr noundef %36, ptr noundef @.str) #10
  %38 = trunc i64 %37 to i32
  store i32 %38, ptr %7, align 4
  %39 = load i32, ptr %7, align 4
  %40 = icmp slt i32 %39, 1
  br i1 %40, label %55, label %41

41:                                               ; preds = %31
  %42 = load i32, ptr %7, align 4
  %43 = icmp sgt i32 %42, 8
  br i1 %43, label %55, label %44

44:                                               ; preds = %41
  %45 = load ptr, ptr %4, align 8
  %46 = load i32, ptr %6, align 4
  %47 = add i32 %46, 1
  %48 = load i32, ptr %7, align 4
  %49 = add i32 %47, %48
  %50 = sext i32 %49 to i64
  %51 = getelementptr inbounds i8, ptr %45, i64 %50
  %52 = load i8, ptr %51, align 1
  %53 = sext i8 %52 to i32
  %54 = icmp ne i32 %53, 0
  br i1 %54, label %55, label %57

55:                                               ; preds = %44, %41, %31
  %56 = load ptr, ptr %5, align 8
  store i8 1, ptr %56, align 1
  store i64 0, ptr %3, align 8
  store i32 1, ptr %11, align 4
  br label %75

57:                                               ; preds = %44
  %58 = load ptr, ptr %4, align 8
  %59 = call i64 @strtoul(ptr noundef %58, ptr noundef null, i32 noundef 16) #9
  %60 = trunc i64 %59 to i32
  store i32 %60, ptr %8, align 4
  %61 = load ptr, ptr %4, align 8
  %62 = load i32, ptr %6, align 4
  %63 = sext i32 %62 to i64
  %64 = getelementptr inbounds i8, ptr %61, i64 %63
  %65 = getelementptr inbounds i8, ptr %64, i64 1
  %66 = call i64 @strtoul(ptr noundef %65, ptr noundef null, i32 noundef 16) #9
  %67 = trunc i64 %66 to i32
  store i32 %67, ptr %9, align 4
  %68 = load i32, ptr %8, align 4
  %69 = zext i32 %68 to i64
  %70 = shl i64 %69, 32
  %71 = load i32, ptr %9, align 4
  %72 = zext i32 %71 to i64
  %73 = or i64 %70, %72
  store i64 %73, ptr %10, align 8
  %74 = load i64, ptr %10, align 8
  store i64 %74, ptr %3, align 8
  store i32 1, ptr %11, align 4
  br label %75

75:                                               ; preds = %57, %55, %29
  call void @llvm.lifetime.end.p0(i64 8, ptr %10) #9
  call void @llvm.lifetime.end.p0(i64 4, ptr %9) #9
  call void @llvm.lifetime.end.p0(i64 4, ptr %8) #9
  call void @llvm.lifetime.end.p0(i64 4, ptr %7) #9
  call void @llvm.lifetime.end.p0(i64 4, ptr %6) #9
  %76 = load i64, ptr %3, align 8
  ret i64 %76
}