; Function Attrs: mustprogress nofree nounwind willreturn uwtable
define dso_local i64 @pg_lsn_in_internal(ptr noundef readonly captures(none) %0, ptr noundef writeonly captures(none) initializes((0, 1)) %1) local_unnamed_addr #0 {
  store i8 0, ptr %1, align 1
  %3 = tail call i64 @strspn(ptr noundef %0, ptr noundef nonnull @.str) #12
  %4 = trunc i64 %3 to i32
  %5 = add i32 %4, -9
  %or.cond = icmp ult i32 %5, -8
  br i1 %or.cond, label %10, label %6

6:                                                ; preds = %2
  %7 = and i64 %3, 4294967295
  %8 = getelementptr inbounds nuw i8, ptr %0, i64 %7
  %9 = load i8, ptr %8, align 1
  %.not = icmp eq i8 %9, 47
  br i1 %.not, label %11, label %10

10:                                               ; preds = %6, %2
  store i8 1, ptr %1, align 1
  br label %29

11:                                               ; preds = %6
  %12 = getelementptr inbounds nuw i8, ptr %8, i64 1
  %13 = tail call i64 @strspn(ptr noundef nonnull %12, ptr noundef nonnull @.str) #12
  %14 = trunc i64 %13 to i32
  %15 = add i32 %14, -9
  %or.cond3 = icmp ult i32 %15, -8
  br i1 %or.cond3, label %22, label %16

16:                                               ; preds = %11
  %17 = add i64 %3, 1
  %18 = add i64 %17, %13
  %19 = and i64 %18, 4294967295
  %20 = getelementptr inbounds nuw i8, ptr %0, i64 %19
  %21 = load i8, ptr %20, align 1
  %.not26 = icmp eq i8 %21, 0
  br i1 %.not26, label %23, label %22

22:                                               ; preds = %16, %11
  store i8 1, ptr %1, align 1
  br label %29

23:                                               ; preds = %16
  %24 = tail call i64 @strtoul(ptr noundef nonnull captures(none) %0, ptr noundef null, i32 noundef 16) #13
  %25 = tail call i64 @strtoul(ptr noundef nonnull captures(none) %12, ptr noundef null, i32 noundef 16) #13
  %26 = shl i64 %24, 32
  %27 = and i64 %25, 4294967295
  %28 = or disjoint i64 %27, %26
  br label %29

29:                                               ; preds = %23, %22, %10
  %.0 = phi i64 [ 0, %10 ], [ 0, %22 ], [ %28, %23 ]
  ret i64 %.0
}